target datalayout = "e-m:e-p270:32:32-p271:32:32-p272:64:64-i64:64-i128:128-f80:128-n8:16:32:64-S128"
target triple = "x86_64-pc-linux-gnu"

%"class.net::QuicReceivedPacketManager::EntropyTracker" = type { %"class.std::deque", i8, i64, i64 }
%"class.std::deque" = type { %"class.std::_Deque_base" }
%"class.std::_Deque_base" = type { %"struct.std::_Deque_base<std::pair<unsigned char, bool>, std::allocator<std::pair<unsigned char, bool>>>::_Deque_impl" }
%"struct.std::_Deque_base<std::pair<unsigned char, bool>, std::allocator<std::pair<unsigned char, bool>>>::_Deque_impl" = type { %"struct.std::_Deque_base<std::pair<unsigned char, bool>, std::allocator<std::pair<unsigned char, bool>>>::_Deque_impl_data" }
%"struct.std::_Deque_base<std::pair<unsigned char, bool>, std::allocator<std::pair<unsigned char, bool>>>::_Deque_impl_data" = type { ptr, i64, %"struct.std::_Deque_iterator", %"struct.std::_Deque_iterator" }
%"struct.std::_Deque_iterator" = type { ptr, ptr, ptr, ptr }
%"class.logging::CheckOpResult" = type { ptr }
%"class.logging::LogMessage" = type <{ i32, [4 x i8], %"class.std::__cxx11::basic_ostringstream", i64, ptr, i32, [4 x i8] }>
%"class.std::__cxx11::basic_ostringstream" = type { %"class.std::basic_ostream.base", %"class.std::__cxx11::basic_stringbuf", %"class.std::basic_ios" }
%"class.std::basic_ostream.base" = type { ptr }
%"class.std::__cxx11::basic_stringbuf" = type { %"class.std::basic_streambuf", i32, %"class.std::__cxx11::basic_string" }
%"class.std::basic_streambuf" = type { ptr, ptr, ptr, ptr, ptr, ptr, ptr, %"class.std::locale" }
%"class.std::locale" = type { ptr }
%"class.std::__cxx11::basic_string" = type { %"struct.std::__cxx11::basic_string<char>::_Alloc_hider", i64, %union.anon }
%"struct.std::__cxx11::basic_string<char>::_Alloc_hider" = type { ptr }
%union.anon = type { i64, [8 x i8] }
%"class.std::basic_ios" = type { %"class.std::ios_base", ptr, i8, i8, ptr, ptr, ptr, ptr }
%"class.std::ios_base" = type { ptr, i64, i64, i32, i32, i32, ptr, %"struct.std::ios_base::_Words", [8 x %"struct.std::ios_base::_Words"], i32, ptr, %"class.std::locale" }
%"struct.std::ios_base::_Words" = type { ptr, i64 }
%"class.net::QuicReceivedPacketManager" = type { %"class.net::QuicReceivedEntropyHashCalculatorInterface", %"class.net::QuicReceivedPacketManager::EntropyTracker", i64, %"struct.net::QuicAckFrame", i8, %"class.net::QuicTime", ptr }
%"class.net::QuicReceivedEntropyHashCalculatorInterface" = type { ptr }
%"struct.net::QuicAckFrame" = type <{ i64, %"class.net::QuicTime::Delta", %"class.std::vector", %"class.net::PacketNumberQueue", i8, i8, i8, i8, [4 x i8] }>
%"class.net::QuicTime::Delta" = type { %"class.base::TimeDelta", i64 }
%"class.base::TimeDelta" = type { i64 }
%"class.std::vector" = type { %"struct.std::_Vector_base" }
%"struct.std::_Vector_base" = type { %"struct.std::_Vector_base<std::pair<unsigned long, net::QuicTime>, std::allocator<std::pair<unsigned long, net::QuicTime>>>::_Vector_impl" }
%"struct.std::_Vector_base<std::pair<unsigned long, net::QuicTime>, std::allocator<std::pair<unsigned long, net::QuicTime>>>::_Vector_impl" = type { %"struct.std::_Vector_base<std::pair<unsigned long, net::QuicTime>, std::allocator<std::pair<unsigned long, net::QuicTime>>>::_Vector_impl_data" }
%"struct.std::_Vector_base<std::pair<unsigned long, net::QuicTime>, std::allocator<std::pair<unsigned long, net::QuicTime>>>::_Vector_impl_data" = type { ptr, ptr, ptr }
%"class.net::PacketNumberQueue" = type { %"class.net::IntervalSet" }
%"class.net::IntervalSet" = type { %"class.std::set" }
%"class.std::set" = type { %"class.std::_Rb_tree" }
%"class.std::_Rb_tree" = type { %"struct.std::_Rb_tree<net::Interval<unsigned long>, net::Interval<unsigned long>, std::_Identity<net::Interval<unsigned long>>, net::IntervalSet<unsigned long>::IntervalComparator>::_Rb_tree_impl" }
%"struct.std::_Rb_tree<net::Interval<unsigned long>, net::Interval<unsigned long>, std::_Identity<net::Interval<unsigned long>>, net::IntervalSet<unsigned long>::IntervalComparator>::_Rb_tree_impl" = type { [8 x i8], %"struct.std::_Rb_tree_header" }
%"struct.std::_Rb_tree_header" = type { %"struct.std::_Rb_tree_node_base", i64 }
%"struct.std::_Rb_tree_node_base" = type { i32, ptr, ptr, ptr }
%"class.net::QuicTime" = type { i64 }
%"struct.net::QuicStopWaitingFrame" = type { i8, i8, i64 }

@.str = private unnamed_addr constant [143 x i8] c"generated/home/dtcxzyw/WorkSpace/Projects/compilers/llvm-opt-benchmark/bench/libquic/libquic/src/net/quic/core/quic_received_packet_manager.cc\00", align 1

; Function Attrs: mustprogress uwtable
define noundef zeroext i1 @_ZN3net25QuicReceivedPacketManager24DontWaitForPacketsBeforeEm(ptr noundef nonnull align 8 dereferenceable(248) %0, i64 noundef %1) #0 align 2 {
  %3 = alloca ptr, align 8
  %4 = alloca i64, align 8
  store ptr %0, ptr %3, align 8, !tbaa !73
  store i64 %1, ptr %4, align 8, !tbaa !22
  %5 = load ptr, ptr %3, align 8
  %6 = load i64, ptr %4, align 8, !tbaa !22
  %7 = getelementptr inbounds nuw %"class.net::QuicReceivedPacketManager", ptr %5, i32 0, i32 2
  store i64 %6, ptr %7, align 8, !tbaa !79
  %8 = getelementptr inbounds nuw %"class.net::QuicReceivedPacketManager", ptr %5, i32 0, i32 3
  %9 = getelementptr inbounds nuw %"struct.net::QuicAckFrame", ptr %8, i32 0, i32 3
  %10 = load i64, ptr %4, align 8, !tbaa !22
  %11 = call noundef zeroext i1 @_ZN3net17PacketNumberQueue10RemoveUpToEm(ptr noundef nonnull align 8 dereferenceable(48) %9, i64 noundef %10)
  ret i1 %11
}

; Function Attrs: mustprogress nounwind uwtable
define linkonce_odr noundef nonnull align 8 dereferenceable(8) ptr @_ZN7logging10LogMessage6streamEv(ptr noundef nonnull align 8 dereferenceable(404) %0) #1 comdat align 2 {
  %2 = alloca ptr, align 8
  store ptr %0, ptr %2, align 8, !tbaa !35
  %3 = load ptr, ptr %2, align 8
  %4 = getelementptr inbounds nuw %"class.logging::LogMessage", ptr %3, i32 0, i32 2
  ret ptr %4
}

; Function Attrs: mustprogress nounwind uwtable
define linkonce_odr noundef ptr @_ZN7logging13CheckOpResult7messageB5cxx11Ev(ptr noundef nonnull align 8 dereferenceable(8) %0) #1 comdat align 2 {
  %2 = alloca ptr, align 8
  store ptr %0, ptr %2, align 8, !tbaa !29
  %3 = load ptr, ptr %2, align 8
  %4 = getelementptr inbounds nuw %"class.logging::CheckOpResult", ptr %3, i32 0, i32 0
  %5 = load ptr, ptr %4, align 8, !tbaa !33
  ret ptr %5
}

; Function Attrs: mustprogress nounwind uwtable
define linkonce_odr noundef zeroext i1 @_ZNK7logging13CheckOpResultcvbEv(ptr noundef nonnull align 8 dereferenceable(8) %0) #1 comdat align 2 {
  %2 = alloca ptr, align 8
  store ptr %0, ptr %2, align 8, !tbaa !29
  %3 = load ptr, ptr %2, align 8
  %4 = getelementptr inbounds nuw %"class.logging::CheckOpResult", ptr %3, i32 0, i32 0
  %5 = load ptr, ptr %4, align 8, !tbaa !33
  %6 = icmp ne ptr %5, null
  %7 = xor i1 %6, true
  ret i1 %7
}

; Function Attrs: mustprogress nounwind uwtable
define linkonce_odr void @_ZN7logging13CheckOpResultC2EPNSt7__cxx1112basic_stringIcSt11char_traitsIcESaIcEEE(ptr noundef nonnull align 8 dereferenceable(8) %0, ptr noundef %1) unnamed_addr #1 comdat align 2 {
  %3 = alloca ptr, align 8
  %4 = alloca ptr, align 8
  store ptr %0, ptr %3, align 8, !tbaa !29
  store ptr %1, ptr %4, align 8, !tbaa !31
  %5 = load ptr, ptr %3, align 8
  %6 = getelementptr inbounds nuw %"class.logging::CheckOpResult", ptr %5, i32 0, i32 0
  %7 = load ptr, ptr %4, align 8, !tbaa !31
  store ptr %7, ptr %6, align 8, !tbaa !33
  ret void
}

; Function Attrs: mustprogress uwtable
define void @_ZN3net25QuicReceivedPacketManager33UpdatePacketInformationSentByPeerERKNS_20QuicStopWaitingFrameE(ptr noundef nonnull align 8 dereferenceable(248) %0, ptr noundef nonnull align 8 dereferenceable(16) %1) unnamed_addr #0 align 2 personality ptr @__gxx_personality_v0 {
  %3 = alloca ptr, align 8
  %4 = alloca ptr, align 8
  %5 = alloca %"class.logging::CheckOpResult", align 8
  %6 = alloca %"class.logging::LogMessage", align 8
  %7 = alloca ptr, align 8
  %8 = alloca i32, align 4
  %9 = alloca i8, align 1
  store ptr %0, ptr %3, align 8, !tbaa !73
  store ptr %1, ptr %4, align 8, !tbaa !152
  %10 = load ptr, ptr %3, align 8
  call void @llvm.lifetime.start.p0(i64 8, ptr %5) #14
  call void @_ZN7logging13CheckOpResultC2EPNSt7__cxx1112basic_stringIcSt11char_traitsIcESaIcEEE(ptr noundef nonnull align 8 dereferenceable(8) %5, ptr noundef null)
  %11 = call noundef zeroext i1 @_ZNK7logging13CheckOpResultcvbEv(ptr noundef nonnull align 8 dereferenceable(8) %5)
  br i1 %11, label %12, label %13

12:                                               ; preds = %2
  br label %21

13:                                               ; preds = %2
  call void @llvm.lifetime.start.p0(i64 408, ptr %6) #14
  %14 = call noundef ptr @_ZN7logging13CheckOpResult7messageB5cxx11Ev(ptr noundef nonnull align 8 dereferenceable(8) %5)
  call void @_ZN7logging10LogMessageC1EPKciiPNSt7__cxx1112basic_stringIcSt11char_traitsIcESaIcEEE(ptr noundef nonnull align 8 dereferenceable(404) %6, ptr noundef @.str, i32 noundef 268, i32 noundef 0, ptr noundef %14)
  %15 = invoke noundef nonnull align 8 dereferenceable(8) ptr @_ZN7logging10LogMessage6streamEv(ptr noundef nonnull align 8 dereferenceable(404) %6)
          to label %16 unwind label %17

16:                                               ; preds = %13
  call void @_ZN7logging10LogMessageD1Ev(ptr noundef nonnull align 8 dereferenceable(404) %6) #14
  call void @llvm.lifetime.end.p0(i64 408, ptr %6) #14
  br label %21

17:                                               ; preds = %13
  %18 = landingpad { ptr, i32 }
          cleanup
  %19 = extractvalue { ptr, i32 } %18, 0
  store ptr %19, ptr %7, align 8
  %20 = extractvalue { ptr, i32 } %18, 1
  store i32 %20, ptr %8, align 4
  call void @_ZN7logging10LogMessageD1Ev(ptr noundef nonnull align 8 dereferenceable(404) %6) #14
  call void @llvm.lifetime.end.p0(i64 408, ptr %6) #14
  call void @llvm.lifetime.end.p0(i64 8, ptr %5) #14
  br label %53

21:                                               ; preds = %16, %12
  call void @llvm.lifetime.end.p0(i64 8, ptr %5) #14
  %22 = load ptr, ptr %4, align 8, !tbaa !152
  %23 = getelementptr inbounds nuw %"struct.net::QuicStopWaitingFrame", ptr %22, i32 0, i32 2
  %24 = load i64, ptr %23, align 8, !tbaa !154
  %25 = getelementptr inbounds nuw %"class.net::QuicReceivedPacketManager", ptr %10, i32 0, i32 2
  %26 = load i64, ptr %25, align 8, !tbaa !79
  %27 = icmp ugt i64 %24, %26
  br i1 %27, label %28, label %52

28:                                               ; preds = %21
  call void @llvm.lifetime.start.p0(i64 1, ptr %9) #14
  %29 = load ptr, ptr %4, align 8, !tbaa !152
  %30 = getelementptr inbounds nuw %"struct.net::QuicStopWaitingFrame", ptr %29, i32 0, i32 2
  %31 = load i64, ptr %30, align 8, !tbaa !154
  %32 = call noundef zeroext i1 @_ZN3net25QuicReceivedPacketManager24DontWaitForPacketsBeforeEm(ptr noundef nonnull align 8 dereferenceable(248) %10, i64 noundef %31)
  %33 = zext i1 %32 to i8
  store i8 %33, ptr %9, align 1, !tbaa !41
  %34 = load i8, ptr %9, align 1, !tbaa !41, !range !50, !noundef !51
  %35 = trunc i8 %34 to i1
  br i1 %35, label %36, label %51

36:                                               ; preds = %28
  %37 = getelementptr inbounds nuw %"class.net::QuicReceivedPacketManager", ptr %10, i32 0, i32 3
  %38 = getelementptr inbounds nuw %"struct.net::QuicAckFrame", ptr %37, i32 0, i32 7
  %39 = load i8, ptr %38, align 1, !tbaa !120, !range !50, !noundef !51
  %40 = trunc i8 %39 to i1
  br i1 %40, label %41, label %49

41:                                               ; preds = %36
  %42 = getelementptr inbounds nuw %"class.net::QuicReceivedPacketManager", ptr %10, i32 0, i32 1
  %43 = load ptr, ptr %4, align 8, !tbaa !152
  %44 = getelementptr inbounds nuw %"struct.net::QuicStopWaitingFrame", ptr %43, i32 0, i32 2
  %45 = load i64, ptr %44, align 8, !tbaa !154
  %46 = load ptr, ptr %4, align 8, !tbaa !152
  %47 = getelementptr inbounds nuw %"struct.net::QuicStopWaitingFrame", ptr %46, i32 0, i32 1
  %48 = load i8, ptr %47, align 1, !tbaa !156
  call void @_ZN3net25QuicReceivedPacketManager14EntropyTracker24SetCumulativeEntropyUpToEmh(ptr noundef nonnull align 8 dereferenceable(104) %42, i64 noundef %45, i8 noundef zeroext %48)
  br label %49

49:                                               ; preds = %41, %36
  %50 = getelementptr inbounds nuw %"class.net::QuicReceivedPacketManager", ptr %10, i32 0, i32 4
  store i8 1, ptr %50, align 8, !tbaa !102
  br label %51

51:                                               ; preds = %49, %28
  call void @llvm.lifetime.end.p0(i64 1, ptr %9) #14
  br label %52

52:                                               ; preds = %51, %21
  ret void

53:                                               ; preds = %17
  %54 = load ptr, ptr %7, align 8
  %55 = load i32, ptr %8, align 4
  %56 = insertvalue { ptr, i32 } poison, ptr %54, 0
  %57 = insertvalue { ptr, i32 } %56, i32 %55, 1
  resume { ptr, i32 } %57
}