; Function Attrs: mustprogress uwtable
define void @_ZN3net25QuicReceivedPacketManager33UpdatePacketInformationSentByPeerERKNS_20QuicStopWaitingFrameE(ptr noundef nonnull align 8 dereferenceable(248) %0, ptr noundef nonnull readonly align 8 captures(none) dereferenceable(16) %1) unnamed_addr #0 align 2 personality ptr @__gxx_personality_v0 {
  %3 = getelementptr inbounds nuw i8, ptr %1, i64 8
  %4 = load i64, ptr %3, align 8, !tbaa !124
  %5 = getelementptr inbounds nuw i8, ptr %0, i64 112
  %6 = load i64, ptr %5, align 8, !tbaa !59
  %7 = icmp ugt i64 %4, %6
  br i1 %7, label %8, label %22

8:                                                ; preds = %2
  store i64 %4, ptr %5, align 8, !tbaa !59
  %9 = getelementptr inbounds nuw i8, ptr %0, i64 168
  %10 = tail call noundef zeroext i1 @_ZN3net17PacketNumberQueue10RemoveUpToEm(ptr noundef nonnull align 8 dereferenceable(48) %9, i64 noundef %4)
  br i1 %10, label %11, label %22

11:                                               ; preds = %8
  %12 = getelementptr inbounds nuw i8, ptr %0, i64 219
  %13 = load i8, ptr %12, align 1, !tbaa !99, !range !41, !noundef !42
  %14 = trunc nuw i8 %13 to i1
  br i1 %14, label %15, label %20

15:                                               ; preds = %11
  %16 = getelementptr inbounds nuw i8, ptr %0, i64 8
  %17 = load i64, ptr %3, align 8, !tbaa !124
  %18 = getelementptr inbounds nuw i8, ptr %1, i64 1
  %19 = load i8, ptr %18, align 1, !tbaa !126
  tail call void @_ZN3net25QuicReceivedPacketManager14EntropyTracker24SetCumulativeEntropyUpToEmh(ptr noundef nonnull align 8 dereferenceable(104) %16, i64 noundef %17, i8 noundef zeroext %19)
  br label %20

20:                                               ; preds = %15, %11
  %21 = getelementptr inbounds nuw i8, ptr %0, i64 224
  store i8 1, ptr %21, align 8, !tbaa !83
  br label %22

22:                                               ; preds = %8, %20, %2
  ret void
}